target datalayout = "e-m:e-p270:32:32-p271:32:32-p272:64:64-i64:64-i128:128-f80:128-n8:16:32:64-S128"
target triple = "x86_64-pc-linux-gnu"

%"class.icu_77::RBBISymbolTable" = type <{ %"class.icu_77::SymbolTable", ptr, ptr, ptr, %"class.icu_77::UnicodeString", ptr, i32, [4 x i8] }>
%"class.icu_77::SymbolTable" = type { ptr }
%"class.icu_77::UnicodeString" = type { %"class.icu_77::Replaceable", %"union.icu_77::UnicodeString::StackBufferOrFields" }
%"class.icu_77::Replaceable" = type { %"class.icu_77::UObject" }
%"class.icu_77::UObject" = type { ptr }
%"union.icu_77::UnicodeString::StackBufferOrFields" = type { %struct.anon.0, [32 x i8] }
%struct.anon.0 = type { i16, i32, i32, ptr }
%"class.icu_77::RBBISymbolTableEntry" = type { [8 x i8], %"class.icu_77::UnicodeString", ptr }
%"class.icu_77::RBBINode" = type { i32, ptr, ptr, ptr, ptr, i32, %"class.icu_77::UnicodeString", i32, i32, i8, i32, i8, i8, i8, ptr, ptr, ptr }

; Function Attrs: mustprogress uwtable
define noundef ptr @_ZNK6icu_7715RBBISymbolTable6lookupERKNS_13UnicodeStringE(ptr noundef nonnull align 8 dereferenceable(108) %0, ptr noundef nonnull align 8 dereferenceable(64) %1) unnamed_addr #1 align 2 {
  %3 = alloca ptr, align 8
  %4 = alloca ptr, align 8
  %5 = alloca ptr, align 8
  %6 = alloca ptr, align 8
  %7 = alloca ptr, align 8
  %8 = alloca ptr, align 8
  %9 = alloca ptr, align 8
  %10 = alloca ptr, align 8
  %11 = alloca ptr, align 8
  %12 = alloca i32, align 4
  store ptr %0, ptr %4, align 8, !tbaa !23
  store ptr %1, ptr %5, align 8, !tbaa !27
  %13 = load ptr, ptr %4, align 8
  call void @llvm.lifetime.start.p0(i64 8, ptr %6) #10
  call void @llvm.lifetime.start.p0(i64 8, ptr %7) #10
  call void @llvm.lifetime.start.p0(i64 8, ptr %8) #10
  call void @llvm.lifetime.start.p0(i64 8, ptr %9) #10
  call void @llvm.lifetime.start.p0(i64 8, ptr %10) #10
  call void @llvm.lifetime.start.p0(i64 8, ptr %11) #10
  store ptr %13, ptr %11, align 8, !tbaa !23
  %14 = getelementptr inbounds nuw %"class.icu_77::RBBISymbolTable", ptr %13, i32 0, i32 2
  %15 = load ptr, ptr %14, align 8, !tbaa !39
  %16 = load ptr, ptr %5, align 8, !tbaa !27
  %17 = call ptr @uhash_get_77(ptr noundef %15, ptr noundef %16)
  store ptr %17, ptr %6, align 8, !tbaa !43
  %18 = load ptr, ptr %6, align 8, !tbaa !43
  %19 = icmp eq ptr %18, null
  br i1 %19, label %20, label %21

20:                                               ; preds = %2
  store ptr null, ptr %3, align 8
  store i32 1, ptr %12, align 4
  br label %49

21:                                               ; preds = %2
  %22 = load ptr, ptr %6, align 8, !tbaa !43
  %23 = getelementptr inbounds nuw %"class.icu_77::RBBISymbolTableEntry", ptr %22, i32 0, i32 2
  %24 = load ptr, ptr %23, align 8, !tbaa !45
  store ptr %24, ptr %7, align 8, !tbaa !48
  %25 = load ptr, ptr %7, align 8, !tbaa !48
  %26 = getelementptr inbounds nuw %"class.icu_77::RBBINode", ptr %25, i32 0, i32 2
  %27 = load ptr, ptr %26, align 8, !tbaa !49
  store ptr %27, ptr %8, align 8, !tbaa !48
  %28 = load ptr, ptr %8, align 8, !tbaa !48
  %29 = getelementptr inbounds nuw %"class.icu_77::RBBINode", ptr %28, i32 0, i32 0
  %30 = load i32, ptr %29, align 8, !tbaa !54
  %31 = icmp eq i32 %30, 0
  br i1 %31, label %32, label %42

32:                                               ; preds = %21
  %33 = load ptr, ptr %8, align 8, !tbaa !48
  %34 = getelementptr inbounds nuw %"class.icu_77::RBBINode", ptr %33, i32 0, i32 2
  %35 = load ptr, ptr %34, align 8, !tbaa !49
  store ptr %35, ptr %9, align 8, !tbaa !48
  %36 = load ptr, ptr %9, align 8, !tbaa !48
  %37 = getelementptr inbounds nuw %"class.icu_77::RBBINode", ptr %36, i32 0, i32 4
  %38 = load ptr, ptr %37, align 8, !tbaa !55
  %39 = load ptr, ptr %11, align 8, !tbaa !23
  %40 = getelementptr inbounds nuw %"class.icu_77::RBBISymbolTable", ptr %39, i32 0, i32 5
  store ptr %38, ptr %40, align 8, !tbaa !40
  %41 = getelementptr inbounds nuw %"class.icu_77::RBBISymbolTable", ptr %13, i32 0, i32 4
  store ptr %41, ptr %10, align 8, !tbaa !27
  br label %47

42:                                               ; preds = %21
  %43 = load ptr, ptr %8, align 8, !tbaa !48
  %44 = getelementptr inbounds nuw %"class.icu_77::RBBINode", ptr %43, i32 0, i32 6
  store ptr %44, ptr %10, align 8, !tbaa !27
  %45 = load ptr, ptr %11, align 8, !tbaa !23
  %46 = getelementptr inbounds nuw %"class.icu_77::RBBISymbolTable", ptr %45, i32 0, i32 5
  store ptr null, ptr %46, align 8, !tbaa !40
  br label %47

47:                                               ; preds = %42, %32
  %48 = load ptr, ptr %10, align 8, !tbaa !27
  store ptr %48, ptr %3, align 8
  store i32 1, ptr %12, align 4
  br label %49

49:                                               ; preds = %47, %20
  call void @llvm.lifetime.end.p0(i64 8, ptr %11) #10
  call void @llvm.lifetime.end.p0(i64 8, ptr %10) #10
  call void @llvm.lifetime.end.p0(i64 8, ptr %9) #10
  call void @llvm.lifetime.end.p0(i64 8, ptr %8) #10
  call void @llvm.lifetime.end.p0(i64 8, ptr %7) #10
  call void @llvm.lifetime.end.p0(i64 8, ptr %6) #10
  %50 = load ptr, ptr %3, align 8
  ret ptr %50
}