; Function Attrs: mustprogress uwtable
define noundef ptr @_ZNK6icu_7715RBBISymbolTable6lookupERKNS_13UnicodeStringE(ptr noundef nonnull align 8 dereferenceable(108) %0, ptr noundef nonnull align 8 dereferenceable(64) %1) unnamed_addr #1 align 2 {
  %3 = getelementptr inbounds nuw i8, ptr %0, i64 16
  %4 = load ptr, ptr %3, align 8, !tbaa !28
  %5 = tail call ptr @uhash_get_77(ptr noundef %4, ptr noundef nonnull %1)
  %6 = icmp eq ptr %5, null
  br i1 %6, label %24, label %7

7:                                                ; preds = %2
  %8 = getelementptr inbounds nuw i8, ptr %5, i64 72
  %9 = load ptr, ptr %8, align 8, !tbaa !30
  %10 = getelementptr inbounds nuw i8, ptr %9, i64 16
  %11 = load ptr, ptr %10, align 8, !tbaa !33
  %12 = load i32, ptr %11, align 8, !tbaa !38
  %13 = icmp eq i32 %12, 0
  br i1 %13, label %14, label %21

14:                                               ; preds = %7
  %15 = getelementptr inbounds nuw i8, ptr %11, i64 16
  %16 = load ptr, ptr %15, align 8, !tbaa !33
  %17 = getelementptr inbounds nuw i8, ptr %16, i64 32
  %18 = load ptr, ptr %17, align 8, !tbaa !39
  %19 = getelementptr inbounds nuw i8, ptr %0, i64 96
  store ptr %18, ptr %19, align 8, !tbaa !29
  %20 = getelementptr inbounds nuw i8, ptr %0, i64 32
  br label %24

21:                                               ; preds = %7
  %22 = getelementptr inbounds nuw i8, ptr %11, i64 48
  %23 = getelementptr inbounds nuw i8, ptr %0, i64 96
  store ptr null, ptr %23, align 8, !tbaa !29
  br label %24

24:                                               ; preds = %14, %21, %2
  %.0 = phi ptr [ null, %2 ], [ %20, %14 ], [ %22, %21 ]
  ret ptr %.0
}